
test.om:     file format elf32-littleriscv


Disassembly of section .text:

00010054 <_start>:
   10054:	21006093          	ori	x1,x0,528
   10058:	0210e113          	ori	x2,x1,33
   1005c:	00111193          	slli	x3,x2,0x1
   10060:	5681f213          	andi	x4,x3,1384
   10064:	68a06293          	ori	x5,x0,1674
   10068:	01606393          	ori	x7,x0,22
   1006c:	007292b3          	sll	x5,x5,x7
   10070:	01406393          	ori	x7,x0,20
   10074:	4072d333          	sra	x6,x5,x7
   10078:	72306293          	ori	x5,x0,1827
   1007c:	0042c2b3          	xor	x5,x5,x4
   10080:	00428333          	add	x6,x5,x4
   10084:	7a432393          	slti	x7,x6,1956
   10088:	7a332413          	slti	x8,x6,1955
   1008c:	00532433          	slt	x8,x6,x5
   10090:	0062a433          	slt	x8,x5,x6
   10094:	405304b3          	sub	x9,x6,x5
   10098:	45b27537          	lui	x10,0x45b27
   1009c:	21c43597          	auipc	x11,0x21c43

000100a0 <es_j1>:
   100a0:	00b55c63          	bge	x10,x11,100b8 <es_j2>
   100a4:	45606613          	ori	x12,x0,1110
   100a8:	2bc06693          	ori	x13,x0,700
   100ac:	00000013          	addi	x0,x0,0
   100b0:	00000013          	addi	x0,x0,0
   100b4:	00000013          	addi	x0,x0,0

000100b8 <es_j2>:
   100b8:	5ef06613          	ori	x12,x0,1519
   100bc:	12306693          	ori	x13,x0,291
   100c0:	00b68123          	sb	x11,2(x13)
   100c4:	00268703          	lb	x14,2(x13)
   100c8:	00c680a3          	sb	x12,1(x13)
   100cc:	00169703          	lh	x14,1(x13)
   100d0:	000707b3          	add	x15,x14,x0
   100d4:	005691a3          	sh	x5,3(x13)
   100d8:	0016a783          	lw	x15,1(x13)
   100dc:	00f388b3          	add	x17,x7,x15
   100e0:	00b6a2a3          	sw	x11,5(x13)
   100e4:	0056a803          	lw	x16,5(x13)
